target datalayout = "e-m:e-p270:32:32-p271:32:32-p272:64:64-i64:64-i128:128-f80:128-n8:16:32:64-S128"
target triple = "x86_64-pc-linux-gnu"

; Function Attrs: nounwind uwtable
define hidden void @X11_InitTouch(ptr noundef %0) #0 {
  %2 = alloca ptr, align 8
  store ptr %0, ptr %2, align 8
  %3 = load ptr, ptr %2, align 8
  call void @X11_InitXinput2Multitouch(ptr noundef %3)
  ret void
}

declare void @X11_InitXinput2Multitouch(ptr noundef) #1

; Function Attrs: nounwind uwtable
define hidden void @X11_QuitTouch(ptr noundef %0) #0 {
  %2 = alloca ptr, align 8
  store ptr %0, ptr %2, align 8
  call void @SDL_QuitTouch()
  ret void
}

declare void @SDL_QuitTouch() #1

; Function Attrs: nounwind uwtable
define hidden void @X11_ResetTouch(ptr noundef %0) #0 {
  %2 = alloca ptr, align 8
  store ptr %0, ptr %2, align 8
  %3 = load ptr, ptr %2, align 8
  call void @X11_QuitTouch(ptr noundef %3)
  %4 = load ptr, ptr %2, align 8
  call void @X11_InitTouch(ptr noundef %4)
  ret void
}


!llvm.module.flags = !{!0, !1, !2}

!0 = !{i32 1, !"wchar_size", i32 4}
!1 = !{i32 8, !"PIC Level", i32 2}
!2 = !{i32 7, !"uwtable", i32 2}
